; Function Attrs: mustprogress uwtable
define hidden noundef ptr @_ZNK6google8protobuf10TextFormat6Finder11FindAnyTypeERKNS0_7MessageERKNSt7__cxx1112basic_stringIcSt11char_traitsIcESaIcEEESD_(ptr nonnull readnone align 8 captures(none) %0, ptr noundef nonnull align 8 dereferenceable(16) %1, ptr noundef nonnull align 8 dereferenceable(32) %2, ptr noundef nonnull align 8 dereferenceable(32) %3) unnamed_addr #3 align 2 {
  %5 = tail call noundef i32 @_ZNKSt7__cxx1112basic_stringIcSt11char_traitsIcESaIcEE7compareEPKc(ptr noundef nonnull align 8 dereferenceable(32) %2, ptr noundef nonnull @_ZN6google8protobuf8internal24kTypeGoogleApisComPrefixE) #31
  %.not.i = icmp eq i32 %5, 0
  br i1 %.not.i, label %8, label %6

6:                                                ; preds = %4
  %7 = tail call noundef i32 @_ZNKSt7__cxx1112basic_stringIcSt11char_traitsIcESaIcEE7compareEPKc(ptr noundef nonnull align 8 dereferenceable(32) %2, ptr noundef nonnull @_ZN6google8protobuf8internal24kTypeGoogleProdComPrefixE) #31
  %.not5.i = icmp eq i32 %7, 0
  br i1 %.not5.i, label %8, label %_ZN6google8protobuf12_GLOBAL__N_124DefaultFinderFindAnyTypeERKNS0_7MessageERKNSt7__cxx1112basic_stringIcSt11char_traitsIcESaIcEEESC_.exit

8:                                                ; preds = %6, %4
  %9 = load ptr, ptr %1, align 8, !tbaa !24
  %10 = getelementptr inbounds nuw i8, ptr %9, i64 136
  %11 = load ptr, ptr %10, align 8
  %12 = tail call { ptr, ptr } %11(ptr noundef nonnull align 8 dereferenceable(16) %1)
  %13 = extractvalue { ptr, ptr } %12, 0
  %14 = getelementptr inbounds nuw i8, ptr %13, i64 16
  %15 = load ptr, ptr %14, align 8, !tbaa !118
  %16 = getelementptr inbounds nuw i8, ptr %15, i64 16
  %17 = load ptr, ptr %16, align 8, !tbaa !127
  %18 = tail call noundef ptr @_ZNK6google8protobuf14DescriptorPool21FindMessageTypeByNameERKNSt7__cxx1112basic_stringIcSt11char_traitsIcESaIcEEE(ptr noundef nonnull align 8 dereferenceable(96) %17, ptr noundef nonnull align 8 dereferenceable(32) %3)
  br label %_ZN6google8protobuf12_GLOBAL__N_124DefaultFinderFindAnyTypeERKNS0_7MessageERKNSt7__cxx1112basic_stringIcSt11char_traitsIcESaIcEEESC_.exit

_ZN6google8protobuf12_GLOBAL__N_124DefaultFinderFindAnyTypeERKNS0_7MessageERKNSt7__cxx1112basic_stringIcSt11char_traitsIcESaIcEEESC_.exit: ; preds = %6, %8
  %.0.i = phi ptr [ %18, %8 ], [ null, %6 ]
  ret ptr %.0.i
}